; Function Attrs: mustprogress nounwind uwtable
define internal noundef zeroext i1 @_ZN4llvm32DOTGraphTraitsPrinterWrapperPassINS_14RegionInfoPassELb1EPNS_10RegionInfoEN12_GLOBAL__N_125RegionInfoPassGraphTraitsEE13runOnFunctionERNS_8FunctionE(ptr noundef nonnull align 8 dereferenceable(64) %0, ptr noundef nonnull align 8 dereferenceable(136) %1) unnamed_addr #0 align 2 {
  %3 = getelementptr inbounds nuw i8, ptr %0, i64 8
  %4 = load ptr, ptr %3, align 8
  %5 = load ptr, ptr %4, align 8
  %6 = getelementptr inbounds nuw i8, ptr %4, i64 8
  %7 = load ptr, ptr %6, align 8
  %.not11.i.i.i = icmp ne ptr %5, %7
  tail call void @llvm.assume(i1 %.not11.i.i.i)
  %8 = load ptr, ptr %5, align 8
  %9 = icmp eq ptr %8, @_ZN4llvm14RegionInfoPass2IDE
  br i1 %9, label %_ZNK4llvm4Pass11getAnalysisINS_14RegionInfoPassEEERT_v.exit, label %.lr.ph.i.i.i

.lr.ph.i.i.i:                                     ; preds = %2, %.lr.ph.i.i.i
  %.sroa.07.012.i4.i.i = phi ptr [ %10, %.lr.ph.i.i.i ], [ %5, %2 ]
  %10 = getelementptr inbounds i8, ptr %.sroa.07.012.i4.i.i, i64 16
  %.not.i.i.i = icmp ne ptr %10, %7
  tail call void @llvm.assume(i1 %.not.i.i.i)
  %11 = load ptr, ptr %10, align 8
  %12 = icmp eq ptr %11, @_ZN4llvm14RegionInfoPass2IDE
  br i1 %12, label %_ZNK4llvm4Pass11getAnalysisINS_14RegionInfoPassEEERT_v.exit, label %.lr.ph.i.i.i

_ZNK4llvm4Pass11getAnalysisINS_14RegionInfoPassEEERT_v.exit: ; preds = %.lr.ph.i.i.i, %2
  %.sroa.07.012.i.lcssa.i.i = phi ptr [ %5, %2 ], [ %10, %.lr.ph.i.i.i ]
  %13 = getelementptr inbounds nuw i8, ptr %.sroa.07.012.i.lcssa.i.i, i64 8
  %14 = load ptr, ptr %13, align 8
  %15 = load ptr, ptr %14, align 8
  %16 = getelementptr inbounds i8, ptr %15, i64 96
  %17 = load ptr, ptr %16, align 8
  %18 = tail call noundef nonnull align 8 dereferenceable(96) ptr %17(ptr noundef nonnull align 8 dereferenceable(28) %14, ptr noundef nonnull @_ZN4llvm14RegionInfoPass2IDE) #21
  %19 = load ptr, ptr %0, align 8
  %20 = getelementptr inbounds i8, ptr %19, i64 144
  %21 = load ptr, ptr %20, align 8
  %22 = tail call noundef zeroext i1 %21(ptr noundef nonnull align 8 dereferenceable(64) %0, ptr noundef nonnull align 8 dereferenceable(136) %1, ptr noundef nonnull align 8 dereferenceable(96) %18) #21
  br i1 %22, label %23, label %28

23:                                               ; preds = %_ZNK4llvm4Pass11getAnalysisINS_14RegionInfoPassEEERT_v.exit
  %24 = getelementptr inbounds nuw i8, ptr %18, i64 32
  %25 = getelementptr inbounds nuw i8, ptr %0, i64 32
  %26 = tail call noundef ptr @_ZNKSt7__cxx1112basic_stringIcSt11char_traitsIcESaIcEE4dataEv(ptr noundef nonnull align 8 dereferenceable(32) %25) #21
  %27 = tail call noundef i64 @_ZNKSt7__cxx1112basic_stringIcSt11char_traitsIcESaIcEE6lengthEv(ptr noundef nonnull align 8 dereferenceable(32) %25) #21
  tail call void @_ZN4llvm21printGraphForFunctionIPNS_10RegionInfoEEEvRNS_8FunctionET_NS_9StringRefEb(ptr noundef nonnull align 8 dereferenceable(136) %1, ptr noundef nonnull %24, ptr %26, i64 %27, i1 noundef zeroext true)
  br label %28

28:                                               ; preds = %_ZNK4llvm4Pass11getAnalysisINS_14RegionInfoPassEEERT_v.exit, %23
  ret i1 false
}